ccopy_reg
_reconstructor
p0
(csklearn.externals.joblib.numpy_pickle
NDArrayWrapper
p1
c__builtin__
object
p2
Ntp3
Rp4
(dp5
S'allow_mmap'
p6
I01
sS'subclass'
p7
cnumpy
ndarray
p8
sS'filename'
p9
S'3.pkl_01.npy'
p10
sb.